target datalayout = "e-m:e-p270:32:32-p271:32:32-p272:64:64-i64:64-i128:128-f80:128-n8:16:32:64-S128"
target triple = "x86_64-pc-linux-gnu"

%struct._lv_indev_t = type { i32, ptr, i32, i32, i32, i8, i32, i32, ptr, ptr, ptr, ptr, i8, i8, i8, i8, i16, i16, i32, %struct.anon, %struct.anon.0, ptr, ptr, ptr, %struct.lv_event_list_t, ptr, i32, ptr }
%struct.anon = type { %struct.lv_point_t, %struct.lv_point_t, %struct.lv_point_t, %struct.lv_point_t, %struct.lv_point_t, %struct.lv_point_t, %struct.lv_point_t, ptr, ptr, ptr, ptr, ptr, %struct.lv_area_t, %struct.lv_point_t, i32, i8, %struct.lv_point_t, i32, i16 }
%struct.lv_area_t = type { i32, i32, i32, i32 }
%struct.lv_point_t = type { i32, i32 }
%struct.anon.0 = type { i32, i32 }
%struct.lv_event_list_t = type { %struct._lv_array_t, i8 }
%struct._lv_array_t = type { ptr, i32, i32, i32, i8 }

; Function Attrs: nounwind uwtable
define ptr @lv_indev_get_event_dsc(ptr noundef %0, i32 noundef %1) #0 {
  %3 = alloca ptr, align 8
  %4 = alloca i32, align 4
  store ptr %0, ptr %3, align 8, !tbaa !8
  store i32 %1, ptr %4, align 4, !tbaa !41
  br label %5

5:                                                ; preds = %2
  %6 = load ptr, ptr %3, align 8, !tbaa !8
  %7 = icmp ne ptr %6, null
  br i1 %7, label %12, label %8

8:                                                ; preds = %5
  br label %9

9:                                                ; preds = %8
  br label %10

10:                                               ; preds = %9
  br label %11

11:                                               ; preds = %10, %11
  br label %11

12:                                               ; preds = %5
  br label %13

13:                                               ; preds = %12
  %14 = load ptr, ptr %3, align 8, !tbaa !8
  %15 = getelementptr inbounds nuw %struct._lv_indev_t, ptr %14, i32 0, i32 24
  %16 = load i32, ptr %4, align 4, !tbaa !41
  %17 = call ptr @lv_event_get_dsc(ptr noundef %15, i32 noundef %16)
  ret ptr %17
}